target datalayout = "e-m:e-p270:32:32-p271:32:32-p272:64:64-i64:64-i128:128-f80:128-n8:16:32:64-S128"
target triple = "x86_64-pc-linux-gnu"

%struct._lv_scale_t = type <{ %struct._lv_obj_t, %struct.lv_ll_t, ptr, i32, i32, i32, i64, i32, i32, i32, i32, i32 }>
%struct._lv_obj_t = type { ptr, ptr, ptr, ptr, ptr, %struct.lv_area_t, i32, i16, i16 }
%struct.lv_area_t = type { i32, i32, i32, i32 }
%struct.lv_ll_t = type { i32, ptr, ptr }

; Function Attrs: nounwind uwtable
define void @lv_scale_set_post_draw(ptr noundef %0, i1 noundef zeroext %1) #0 {
  %3 = alloca ptr, align 8
  %4 = alloca i8, align 1
  %5 = alloca ptr, align 8
  store ptr %0, ptr %3, align 8, !tbaa !3
  %6 = zext i1 %1 to i8
  store i8 %6, ptr %4, align 1, !tbaa !26
  br label %7

7:                                                ; preds = %2
  br label %8

8:                                                ; preds = %7
  call void @llvm.lifetime.start.p0(i64 8, ptr %5) #7
  %9 = load ptr, ptr %3, align 8, !tbaa !3
  store ptr %9, ptr %5, align 8, !tbaa !3
  %10 = load i8, ptr %4, align 1, !tbaa !26, !range !28, !noundef !29
  %11 = trunc i8 %10 to i1
  %12 = zext i1 %11 to i32
  %13 = load ptr, ptr %5, align 8, !tbaa !3
  %14 = getelementptr inbounds nuw %struct._lv_scale_t, ptr %13, i32 0, i32 6
  %15 = zext i32 %12 to i64
  %16 = load i64, ptr %14, align 4
  %17 = and i64 %15, 1
  %18 = shl i64 %17, 31
  %19 = and i64 %16, -2147483649
  %20 = or i64 %19, %18
  store i64 %20, ptr %14, align 4
  %21 = load ptr, ptr %3, align 8, !tbaa !3
  call void @lv_obj_invalidate(ptr noundef %21)
  call void @llvm.lifetime.end.p0(i64 8, ptr %5) #7
  ret void
}